target datalayout = "e-m:e-p270:32:32-p271:32:32-p272:64:64-i64:64-i128:128-f80:128-n8:16:32:64-S128"
target triple = "x86_64-pc-linux-gnu"

; Function Attrs: nounwind uwtable
define internal ptr @getthread(ptr noundef %0, ptr noundef %1) #0 {
  %3 = alloca ptr, align 8
  %4 = alloca ptr, align 8
  %5 = alloca ptr, align 8
  store ptr %0, ptr %4, align 8, !tbaa !4
  store ptr %1, ptr %5, align 8, !tbaa !35
  %6 = load ptr, ptr %4, align 8, !tbaa !4
  %7 = call i32 @lua_type(ptr noundef %6, i32 noundef 1)
  %8 = icmp eq i32 %7, 8
  br i1 %8, label %9, label %13

9:                                                ; preds = %2
  %10 = load ptr, ptr %5, align 8, !tbaa !35
  store i32 1, ptr %10, align 4, !tbaa !11
  %11 = load ptr, ptr %4, align 8, !tbaa !4
  %12 = call ptr @lua_tothread(ptr noundef %11, i32 noundef 1)
  store ptr %12, ptr %3, align 8
  br label %16

13:                                               ; preds = %2
  %14 = load ptr, ptr %5, align 8, !tbaa !35
  store i32 0, ptr %14, align 4, !tbaa !11
  %15 = load ptr, ptr %4, align 8, !tbaa !4
  store ptr %15, ptr %3, align 8
  br label %16

16:                                               ; preds = %13, %9
  %17 = load ptr, ptr %3, align 8
  ret ptr %17
}

; Function Attrs: nounwind uwtable
define internal i32 @db_traceback(ptr noundef %0) #0 {
  %2 = alloca ptr, align 8
  %3 = alloca i32, align 4
  %4 = alloca ptr, align 8
  %5 = alloca ptr, align 8
  %6 = alloca i32, align 4
  store ptr %0, ptr %2, align 8, !tbaa !4
  call void @llvm.lifetime.start.p0(i64 4, ptr %3) #6
  call void @llvm.lifetime.start.p0(i64 8, ptr %4) #6
  %7 = load ptr, ptr %2, align 8, !tbaa !4
  %8 = call ptr @getthread(ptr noundef %7, ptr noundef %3)
  store ptr %8, ptr %4, align 8, !tbaa !4
  call void @llvm.lifetime.start.p0(i64 8, ptr %5) #6
  %9 = load ptr, ptr %2, align 8, !tbaa !4
  %10 = load i32, ptr %3, align 4, !tbaa !11
  %11 = add nsw i32 %10, 1
  %12 = call ptr @lua_tolstring(ptr noundef %9, i32 noundef %11, ptr noundef null)
  store ptr %12, ptr %5, align 8, !tbaa !14
  %13 = load ptr, ptr %5, align 8, !tbaa !14
  %14 = icmp eq ptr %13, null
  br i1 %14, label %15, label %25

15:                                               ; preds = %1
  %16 = load ptr, ptr %2, align 8, !tbaa !4
  %17 = load i32, ptr %3, align 4, !tbaa !11
  %18 = add nsw i32 %17, 1
  %19 = call i32 @lua_type(ptr noundef %16, i32 noundef %18)
  %20 = icmp sle i32 %19, 0
  br i1 %20, label %25, label %21

21:                                               ; preds = %15
  %22 = load ptr, ptr %2, align 8, !tbaa !4
  %23 = load i32, ptr %3, align 4, !tbaa !11
  %24 = add nsw i32 %23, 1
  call void @lua_pushvalue(ptr noundef %22, i32 noundef %24)
  br label %40

25:                                               ; preds = %15, %1
  call void @llvm.lifetime.start.p0(i64 4, ptr %6) #6
  %26 = load ptr, ptr %2, align 8, !tbaa !4
  %27 = load i32, ptr %3, align 4, !tbaa !11
  %28 = add nsw i32 %27, 2
  %29 = load ptr, ptr %2, align 8, !tbaa !4
  %30 = load ptr, ptr %4, align 8, !tbaa !4
  %31 = icmp eq ptr %29, %30
  %32 = select i1 %31, i32 1, i32 0
  %33 = sext i32 %32 to i64
  %34 = call i64 @luaL_optinteger(ptr noundef %26, i32 noundef %28, i64 noundef %33)
  %35 = trunc i64 %34 to i32
  store i32 %35, ptr %6, align 4, !tbaa !11
  %36 = load ptr, ptr %2, align 8, !tbaa !4
  %37 = load ptr, ptr %4, align 8, !tbaa !4
  %38 = load ptr, ptr %5, align 8, !tbaa !14
  %39 = load i32, ptr %6, align 4, !tbaa !11
  call void @luaL_traceback(ptr noundef %36, ptr noundef %37, ptr noundef %38, i32 noundef %39)
  call void @llvm.lifetime.end.p0(i64 4, ptr %6) #6
  br label %40

40:                                               ; preds = %25, %21
  call void @llvm.lifetime.end.p0(i64 8, ptr %5) #6
  call void @llvm.lifetime.end.p0(i64 8, ptr %4) #6
  call void @llvm.lifetime.end.p0(i64 4, ptr %3) #6
  ret i32 1
}