; Function Attrs: nounwind uwtable
define internal noundef i32 @db_traceback(ptr noundef %0) #0 {
  %2 = tail call i32 @lua_type(ptr noundef %0, i32 noundef 1) #8
  %3 = icmp eq i32 %2, 8
  br i1 %3, label %4, label %getthread.exit

4:                                                ; preds = %1
  %5 = tail call ptr @lua_tothread(ptr noundef %0, i32 noundef 1) #8
  br label %getthread.exit

getthread.exit:                                   ; preds = %1, %4
  %.0 = phi i32 [ 1, %4 ], [ 0, %1 ]
  %.0.i = phi ptr [ %5, %4 ], [ %0, %1 ]
  %6 = add nuw nsw i32 %.0, 1
  %7 = tail call ptr @lua_tolstring(ptr noundef %0, i32 noundef %6, ptr noundef null) #8
  %8 = icmp eq ptr %7, null
  br i1 %8, label %9, label %13

9:                                                ; preds = %getthread.exit
  %10 = tail call i32 @lua_type(ptr noundef %0, i32 noundef %6) #8
  %11 = icmp slt i32 %10, 1
  br i1 %11, label %13, label %12

12:                                               ; preds = %9
  tail call void @lua_pushvalue(ptr noundef %0, i32 noundef %6) #8
  br label %19

13:                                               ; preds = %9, %getthread.exit
  %14 = or disjoint i32 %.0, 2
  %15 = icmp eq ptr %0, %.0.i
  %16 = zext i1 %15 to i64
  %17 = tail call i64 @luaL_optinteger(ptr noundef %0, i32 noundef %14, i64 noundef %16) #8
  %18 = trunc i64 %17 to i32
  tail call void @luaL_traceback(ptr noundef %0, ptr noundef %.0.i, ptr noundef %7, i32 noundef %18) #8
  br label %19

19:                                               ; preds = %13, %12
  ret i32 1
}